; Function Attrs: mustprogress uwtable
define void @_ZN6icu_7521TimeArrayTimeZoneRuleC2ERKNS_13UnicodeStringEiiPKdiNS_12DateTimeRule12TimeRuleTypeE(ptr noundef nonnull align 8 dereferenceable(352) %this, ptr noundef nonnull align 8 dereferenceable(64) %name, i32 noundef %rawOffset, i32 noundef %dstSavings, ptr nocapture noundef readonly %startTimes, i32 noundef %numStartTimes, i32 noundef %timeRuleType) unnamed_addr #0 align 2 personality ptr @__gxx_personality_v0 {
entry:
  %status = alloca i32, align 4
  store ptr getelementptr inbounds ({ [13 x ptr] }, ptr @_ZTVN6icu_7512TimeZoneRuleE, i64 0, i32 0, i64 2), ptr %this, align 8
  %fName.i = getelementptr inbounds i8, ptr %this, i64 8
  invoke void @_ZN6icu_7513UnicodeStringC1ERKS0_(ptr noundef nonnull align 8 dereferenceable(64) %fName.i, ptr noundef nonnull align 8 dereferenceable(64) %name)
          to label %_ZN6icu_7512TimeZoneRuleC2ERKNS_13UnicodeStringEii.exit unwind label %lpad.i

common.resume:                                    ; preds = %lpad, %lpad.i
  %common.resume.op = phi { ptr, i32 } [ %0, %lpad.i ], [ %1, %lpad ]
  resume { ptr, i32 } %common.resume.op

lpad.i:                                           ; preds = %entry
  %0 = landingpad { ptr, i32 }
          cleanup
  tail call void @_ZN6icu_757UObjectD2Ev(ptr noundef nonnull align 8 dereferenceable(8) %this) #16
  br label %common.resume

_ZN6icu_7512TimeZoneRuleC2ERKNS_13UnicodeStringEii.exit: ; preds = %entry
  %fRawOffset.i = getelementptr inbounds i8, ptr %this, i64 72
  store i32 %rawOffset, ptr %fRawOffset.i, align 8
  %fDSTSavings.i = getelementptr inbounds i8, ptr %this, i64 76
  store i32 %dstSavings, ptr %fDSTSavings.i, align 4
  store ptr getelementptr inbounds ({ [13 x ptr] }, ptr @_ZTVN6icu_7521TimeArrayTimeZoneRuleE, i64 0, i32 0, i64 2), ptr %this, align 8
  %fTimeRuleType = getelementptr inbounds i8, ptr %this, i64 80
  store i32 %timeRuleType, ptr %fTimeRuleType, align 8
  %fStartTimes = getelementptr inbounds i8, ptr %this, i64 88
  store ptr null, ptr %fStartTimes, align 8
  store i32 0, ptr %status, align 4
  %call = invoke noundef signext i8 @_ZN6icu_7521TimeArrayTimeZoneRule14initStartTimesEPKdiR10UErrorCode(ptr noundef nonnull align 8 dereferenceable(352) %this, ptr noundef %startTimes, i32 noundef %numStartTimes, ptr noundef nonnull align 4 dereferenceable(4) %status)
          to label %invoke.cont unwind label %lpad, !range !4

invoke.cont:                                      ; preds = %_ZN6icu_7512TimeZoneRuleC2ERKNS_13UnicodeStringEii.exit
  ret void

lpad:                                             ; preds = %_ZN6icu_7512TimeZoneRuleC2ERKNS_13UnicodeStringEii.exit
  %1 = landingpad { ptr, i32 }
          cleanup
  store ptr getelementptr inbounds ({ [13 x ptr] }, ptr @_ZTVN6icu_7512TimeZoneRuleE, i64 0, i32 0, i64 2), ptr %this, align 8
  call void @_ZN6icu_7513UnicodeStringD1Ev(ptr noundef nonnull align 8 dereferenceable(64) %fName.i) #16
  call void @_ZN6icu_757UObjectD2Ev(ptr noundef nonnull align 8 dereferenceable(8) %this) #16
  br label %common.resume
}